Certificate:
    Data:
        Version: 3 (0x2)
        Serial Number: 2 (0x2)
    Signature Algorithm: sha512WithRSAEncryption
        Issuer: C=DE, CN=test-ca, O=test-ca
        Validity
            Not Before: Mar  3 18:58:45 2017 GMT
            Not After : Mar  1 18:58:45 2027 GMT
        Subject: O=test-ca, CN=tester
        Subject Public Key Info:
            Public Key Algorithm: rsaEncryption
                Public-Key: (4096 bit)
                Modulus:
                    00:f4:50:36:a9:2e:0c:ce:a2:b4:dd:65:a9:23:a8:
                    a8:fb:3e:23:58:2e:7b:87:86:1f:b9:0c:ca:f0:0e:
                    61:6b:e2:12:9e:3a:61:59:e0:a0:f3:fb:ff:29:9e:
                    56:52:bf:a3:c0:45:4a:33:62:ae:36:f8:a9:9a:6c:
                    12:b8:7a:66:42:21:4e:51:cd:5e:28:2f:66:21:ff:
                    ef:ec:da:b4:f8:25:54:d0:d4:16:8c:2c:14:6b:51:
                    33:87:32:9a:61:26:5c:a0:d2:66:c8:df:0f:e6:9a:
                    fc:aa:8c:03:af:99:4e:6c:e7:84:08:22:39:73:6d:
                    52:b9:ad:f7:27:e7:c5:50:d4:2e:4c:e3:76:f1:76:
                    c6:f3:5a:5e:d2:dc:ab:c4:3b:a5:be:06:8c:c5:98:
                    9e:09:68:bf:6a:67:0e:7c:68:4e:80:3b:29:65:6e:
                    bb:24:3b:f7:b5:4e:01:38:af:bf:ec:89:d3:80:96:
                    6a:2a:3e:52:70:b9:24:5d:52:56:04:76:f7:c1:ee:
                    eb:c1:c1:80:03:74:c7:20:57:cd:71:7f:bd:74:7e:
                    81:9c:c9:1c:fd:46:5b:04:22:22:37:e7:5d:40:69:
                    d5:55:6b:90:3a:f3:19:19:8c:ea:6f:34:55:5b:af:
                    a8:75:af:25:a5:b1:bd:0f:8c:38:7b:cc:bb:28:ef:
                    40:e9:db:5c:07:16:5e:c5:a3:4b:de:02:88:89:ff:
                    e5:4c:16:01:e9:d8:fd:28:ec:a6:09:8c:d2:4d:c2:
                    d3:e3:2a:2e:c1:81:5f:fb:75:a3:ae:b5:e2:61:86:
                    5b:11:f1:38:9e:db:10:12:cc:71:3b:b8:66:09:56:
                    45:7c:cc:2a:29:88:d1:f5:2a:cb:95:28:f0:e5:d3:
                    32:a4:d0:23:fc:89:6e:eb:35:73:1d:9b:df:6d:eb:
                    f2:d0:7c:46:2b:02:86:89:66:66:4e:0e:f4:ff:87:
                    02:da:52:75:d4:35:01:0b:fe:98:25:de:4e:45:af:
                    f0:63:e3:57:48:b3:4d:28:15:e0:6f:2d:80:0d:77:
                    67:44:ed:78:71:d6:0e:23:9a:2e:75:1a:b3:dc:88:
                    e0:20:2a:3b:07:a3:8d:54:d4:00:5c:17:2d:0b:e4:
                    11:04:42:82:5c:68:0d:f7:f1:42:fa:b7:8d:33:aa:
                    c8:06:1f:06:61:32:2d:75:b5:55:ab:b2:9d:a4:46:
                    5b:94:d0:68:84:08:4b:e1:9b:ae:50:18:1e:5b:0f:
                    e8:bf:62:d7:b5:74:28:4f:13:76:65:9b:87:ce:0b:
                    c1:2b:87:53:c4:61:e9:b7:b9:51:66:18:1f:20:26:
                    a3:db:2b:e2:cc:94:36:f0:2e:ca:43:ec:34:e1:7e:
                    00:c7:e7
                Exponent: 65537 (0x10001)
        X509v3 extensions:
            X509v3 Basic Constraints: 
                CA:FALSE
            X509v3 Extended Key Usage: 
                TLS Web Client Authentication
            X509v3 Key Usage: 
                Digital Signature, Key Encipherment
    Signature Algorithm: sha512WithRSAEncryption
         58:47:9a:f0:7b:bf:1e:bd:62:3a:3f:40:45:32:2e:fc:7b:63:
         5d:ad:a8:2a:94:ed:b7:db:a8:5a:4e:2d:d3:83:b1:b9:b8:69:
         8f:b9:20:73:5c:8d:22:00:b1:f5:bd:41:ae:78:4b:97:6b:8c:
         e3:b3:fe:60:65:26:fd:86:d9:10:6e:ce:f0:1b:c6:10:27:32:
         b8:74:fc:b2:3e:2e:c9:be:09:ad:f4:39:e5:a9:3f:37:58:cd:
         2d:c6:3e:99:01:80:23:2d:1e:8e:ec:86:98:05:65:ae:79:eb:
         b7:69:9d:32:01:38:67:ca:19:9d:22:b7:07:13:99:1a:61:5e:
         a0:dc:d5:f3:60:d5:98:3a:6f:35:15:f4:15:0e:6e:e9:1e:f7:
         a0:2a:39:2f:dc:71:5f:46:11:d7:46:8e:b4:3f:40:d3:17:3a:
         13:55:4b:d9:25:7b:9d:f0:fc:bc:79:c3:d3:8d:a5:2e:9d:b2:
         5d:9a:98:8b:e8:0c:a7:26:40:5e:a0:e4:1f:3c:8c:ef:a1:d1:
         fc:e2:54:e2:01:84:15:fc:d4:63:eb:5b:70:65:3f:cd:3b:2a:
         c0:96:5f:33:57:ae:c4:e3:76:30:35:3b:f3:c1:37:7f:6b:78:
         6b:9c:b0:0a:6f:8c:f0:9f:47:6e:7f:5b:7e:ba:f4:0d:3d:6c:
         8c:a7:41:40:b0:72:29:6c:37:13:d8:27:ca:c3:58:19:00:67:
         5b:e1:01:e0:8a:4d:d0:0c:e3:fa:a3:84:8a:1c:a4:20:3d:e0:
         99:7a:9e:af:b8:c6:43:3c:41:ff:35:9f:a1:93:e6:36:7d:9f:
         ed:19:da:86:fe:df:5e:81:16:0b:bc:4b:4d:c0:42:32:6d:41:
         22:33:41:17:8e:ea:d5:ae:57:2c:c3:b5:a6:55:f7:2c:84:7f:
         cf:38:62:9e:7d:71:b3:55:bb:bb:66:76:fd:0e:34:ae:9a:0b:
         51:1f:7f:aa:80:74:15:c2:27:6c:b4:95:88:72:9d:82:39:0b:
         06:fc:1e:26:3c:5d:4c:dc:cd:44:2c:a0:e9:47:6f:1c:52:05:
         ba:61:3e:be:34:d7:82:c7:2e:35:01:43:24:36:1c:a4:70:16:
         80:20:36:60:e1:a3:06:3b:f5:2f:2d:71:e9:a4:9a:fd:61:69:
         a4:63:93:c7:77:2b:f5:da:d9:70:2f:8d:96:5a:77:ce:35:ec:
         c9:0c:a3:14:2a:2f:1b:93:14:22:5d:e9:8a:4b:ae:31:4b:3d:
         0b:64:5a:71:f4:ce:a9:41:b6:0a:a7:dc:02:ac:bd:c4:32:34:
         88:c5:69:82:4a:a7:62:4a:d7:2b:52:64:e6:7f:eb:11:c2:53:
         9b:b2:12:66:76:65:80:95
-----BEGIN CERTIFICATE-----
MIIE/jCCAuagAwIBAgIBAjANBgkqhkiG9w0BAQ0FADAxMQswCQYDVQQGEwJERTEQ
MA4GA1UEAwwHdGVzdC1jYTEQMA4GA1UECgwHdGVzdC1jYTAeFw0xNzAzMDMxODU4
NDVaFw0yNzAzMDExODU4NDVaMCMxEDAOBgNVBAoMB3Rlc3QtY2ExDzANBgNVBAMM
BnRlc3RlcjCCAiIwDQYJKoZIhvcNAQEBBQADggIPADCCAgoCggIBAPRQNqkuDM6i
tN1lqSOoqPs+I1gue4eGH7kMyvAOYWviEp46YVngoPP7/ymeVlK/o8BFSjNirjb4
qZpsErh6ZkIhTlHNXigvZiH/7+zatPglVNDUFowsFGtRM4cymmEmXKDSZsjfD+aa
/KqMA6+ZTmznhAgiOXNtUrmt9yfnxVDULkzjdvF2xvNaXtLcq8Q7pb4GjMWYnglo
v2pnDnxoToA7KWVuuyQ797VOATivv+yJ04CWaio+UnC5JF1SVgR298Hu68HBgAN0
xyBXzXF/vXR+gZzJHP1GWwQiIjfnXUBp1VVrkDrzGRmM6m80VVuvqHWvJaWxvQ+M
OHvMuyjvQOnbXAcWXsWjS94CiIn/5UwWAenY/SjspgmM0k3C0+MqLsGBX/t1o661
4mGGWxHxOJ7bEBLMcTu4ZglWRXzMKimI0fUqy5Uo8OXTMqTQI/yJbus1cx2b323r
8tB8RisCholmZk4O9P+HAtpSddQ1AQv+mCXeTkWv8GPjV0izTSgV4G8tgA13Z0Tt
eHHWDiOaLnUas9yI4CAqOwejjVTUAFwXLQvkEQRCglxoDffxQvq3jTOqyAYfBmEy
LXW1VauynaRGW5TQaIQIS+GbrlAYHlsP6L9i17V0KE8TdmWbh84LwSuHU8Rh6be5
UWYYHyAmo9sr4syUNvAuykPsNOF+AMfnAgMBAAGjLzAtMAkGA1UdEwQCMAAwEwYD
VR0lBAwwCgYIKwYBBQUHAwIwCwYDVR0PBAQDAgWgMA0GCSqGSIb3DQEBDQUAA4IC
AQBYR5rwe78evWI6P0BFMi78e2NdragqlO2326haTi3Tg7G5uGmPuSBzXI0iALH1
vUGueEuXa4zjs/5gZSb9htkQbs7wG8YQJzK4dPyyPi7Jvgmt9DnlqT83WM0txj6Z
AYAjLR6O7IaYBWWueeu3aZ0yAThnyhmdIrcHE5kaYV6g3NXzYNWYOm81FfQVDm7p
HvegKjkv3HFfRhHXRo60P0DTFzoTVUvZJXud8Py8ecPTjaUunbJdmpiL6AynJkBe
oOQfPIzvodH84lTiAYQV/NRj61twZT/NOyrAll8zV67E43YwNTvzwTd/a3hrnLAK
b4zwn0duf1t+uvQNPWyMp0FAsHIpbDcT2CfKw1gZAGdb4QHgik3QDOP6o4SKHKQg
PeCZep6vuMZDPEH/NZ+hk+Y2fZ/tGdqG/t9egRYLvEtNwEIybUEiM0EXjurVrlcs
w7WmVfcshH/POGKefXGzVbu7Znb9DjSumgtRH3+qgHQVwidstJWIcp2COQsG/B4m
PF1M3M1ELKDpR28cUgW6YT6+NNeCxy41AUMkNhykcBaAIDZg4aMGO/UvLXHppJr9
YWmkY5PHdyv12tlwL42WWnfONezJDKMUKi8bkxQiXemKS64xSz0LZFpx9M6pQbYK
p9wCrL3EMjSIxWmCSqdiStcrUmTmf+sRwlObshJmdmWAlQ==
-----END CERTIFICATE-----
